target datalayout = "e-m:e-p270:32:32-p271:32:32-p272:64:64-i64:64-i128:128-f80:128-n8:16:32:64-S128"
target triple = "x86_64-pc-linux-gnu"

%struct._zend_array = type { %struct._zend_refcounted_h, %union.anon.0, i32, %union.anon.2, i32, i32, i32, i32, i64, ptr }
%struct._zend_refcounted_h = type { i32, %union.anon }
%union.anon = type { i32 }
%union.anon.0 = type { i32 }
%union.anon.2 = type { ptr }
%struct._func_info_t = type { ptr, i32, i32, ptr }
%struct.anon = type { i8, [3 x i8], i32, ptr, ptr, ptr, i32, i32, ptr, ptr, ptr, ptr, i32, ptr }
%struct._zval_struct = type { %union._zend_value, %union.anon.4, %union.anon.7 }
%union._zend_value = type { i64 }
%union.anon.4 = type { i32 }
%union.anon.7 = type { i32 }

@func_info = internal global %struct._zend_array zeroinitializer, align 8

; Function Attrs: nounwind uwtable
define hidden i32 @zend_get_internal_func_info(ptr noundef %0, ptr noundef %1, ptr noundef %2) #0 {
  %4 = alloca i32, align 4
  %5 = alloca ptr, align 8
  %6 = alloca ptr, align 8
  %7 = alloca ptr, align 8
  %8 = alloca ptr, align 8
  %9 = alloca i32, align 4
  %10 = alloca ptr, align 8
  %11 = alloca ptr, align 8
  %12 = alloca i32, align 4
  store ptr %0, ptr %5, align 8, !tbaa !4
  store ptr %1, ptr %6, align 8, !tbaa !9
  store ptr %2, ptr %7, align 8, !tbaa !11
  %13 = load ptr, ptr %5, align 8, !tbaa !4
  %14 = getelementptr inbounds nuw %struct.anon, ptr %13, i32 0, i32 4
  %15 = load ptr, ptr %14, align 8, !tbaa !13
  %16 = icmp ne ptr %15, null
  br i1 %16, label %17, label %18

17:                                               ; preds = %3
  store i32 0, ptr %4, align 4
  br label %67

18:                                               ; preds = %3
  call void @llvm.lifetime.start.p0(i64 8, ptr %8) #6
  %19 = load ptr, ptr %5, align 8, !tbaa !4
  %20 = getelementptr inbounds nuw %struct.anon, ptr %19, i32 0, i32 3
  %21 = load ptr, ptr %20, align 8, !tbaa !13
  store ptr %21, ptr %8, align 8, !tbaa !14
  %22 = load ptr, ptr %8, align 8, !tbaa !14
  %23 = icmp ne ptr %22, null
  br i1 %23, label %25, label %24

24:                                               ; preds = %18
  store i32 0, ptr %4, align 4
  store i32 1, ptr %9, align 4
  br label %66

25:                                               ; preds = %18
  call void @llvm.lifetime.start.p0(i64 8, ptr %10) #6
  %26 = load ptr, ptr %8, align 8, !tbaa !14
  %27 = call ptr @zend_hash_find_known_hash(ptr noundef @func_info, ptr noundef %26)
  store ptr %27, ptr %10, align 8, !tbaa !16
  %28 = load ptr, ptr %10, align 8, !tbaa !16
  %29 = icmp ne ptr %28, null
  br i1 %29, label %31, label %30

30:                                               ; preds = %25
  store i32 0, ptr %4, align 4
  store i32 1, ptr %9, align 4
  br label %65

31:                                               ; preds = %25
  call void @llvm.lifetime.start.p0(i64 8, ptr %11) #6
  %32 = load ptr, ptr %10, align 8, !tbaa !16
  %33 = getelementptr inbounds nuw %struct._zval_struct, ptr %32, i32 0, i32 0
  %34 = load ptr, ptr %33, align 8, !tbaa !13
  store ptr %34, ptr %11, align 8, !tbaa !18
  %35 = load ptr, ptr %11, align 8, !tbaa !18
  %36 = getelementptr inbounds nuw %struct._func_info_t, ptr %35, i32 0, i32 3
  %37 = load ptr, ptr %36, align 8, !tbaa !20
  %38 = icmp ne ptr %37, null
  br i1 %38, label %39, label %52

39:                                               ; preds = %31
  %40 = load ptr, ptr %6, align 8, !tbaa !9
  %41 = icmp ne ptr %40, null
  br i1 %41, label %42, label %49

42:                                               ; preds = %39
  %43 = load ptr, ptr %11, align 8, !tbaa !18
  %44 = getelementptr inbounds nuw %struct._func_info_t, ptr %43, i32 0, i32 3
  %45 = load ptr, ptr %44, align 8, !tbaa !20
  %46 = load ptr, ptr %6, align 8, !tbaa !9
  %47 = load ptr, ptr %7, align 8, !tbaa !11
  %48 = call i32 %45(ptr noundef %46, ptr noundef %47)
  br label %50

49:                                               ; preds = %39
  br label %50

50:                                               ; preds = %49, %42
  %51 = phi i32 [ %48, %42 ], [ 0, %49 ]
  store i32 %51, ptr %4, align 4
  store i32 1, ptr %9, align 4
  br label %64

52:                                               ; preds = %31
  call void @llvm.lifetime.start.p0(i64 4, ptr %12) #6
  %53 = load ptr, ptr %11, align 8, !tbaa !18
  %54 = getelementptr inbounds nuw %struct._func_info_t, ptr %53, i32 0, i32 2
  %55 = load i32, ptr %54, align 4, !tbaa !24
  store i32 %55, ptr %12, align 4, !tbaa !25
  %56 = load i32, ptr %12, align 4, !tbaa !25
  %57 = and i32 %56, 128
  %58 = icmp ne i32 %57, 0
  br i1 %58, label %59, label %62

59:                                               ; preds = %52
  %60 = load i32, ptr %12, align 4, !tbaa !25
  %61 = or i32 %60, 536870912
  store i32 %61, ptr %12, align 4, !tbaa !25
  br label %62

62:                                               ; preds = %59, %52
  %63 = load i32, ptr %12, align 4, !tbaa !25
  store i32 %63, ptr %4, align 4
  store i32 1, ptr %9, align 4
  call void @llvm.lifetime.end.p0(i64 4, ptr %12) #6
  br label %64

64:                                               ; preds = %62, %50
  call void @llvm.lifetime.end.p0(i64 8, ptr %11) #6
  br label %65

65:                                               ; preds = %64, %30
  call void @llvm.lifetime.end.p0(i64 8, ptr %10) #6
  br label %66

66:                                               ; preds = %65, %24
  call void @llvm.lifetime.end.p0(i64 8, ptr %8) #6
  br label %67

67:                                               ; preds = %66, %17
  %68 = load i32, ptr %4, align 4
  ret i32 %68
}