; Function Attrs: nounwind uwtable
define hidden i32 @zend_get_internal_func_info(ptr noundef readonly captures(none) %0, ptr noundef %1, ptr noundef %2) local_unnamed_addr #0 {
  %4 = getelementptr inbounds nuw i8, ptr %0, i64 16
  %5 = load ptr, ptr %4, align 8, !tbaa !4
  %.not = icmp eq ptr %5, null
  br i1 %.not, label %6, label %23

6:                                                ; preds = %3
  %7 = getelementptr inbounds nuw i8, ptr %0, i64 8
  %8 = load ptr, ptr %7, align 8, !tbaa !4
  %.not20 = icmp eq ptr %8, null
  br i1 %.not20, label %23, label %9

9:                                                ; preds = %6
  %10 = tail call ptr @zend_hash_find_known_hash(ptr noundef nonnull @func_info, ptr noundef nonnull %8) #6
  %.not21 = icmp eq ptr %10, null
  br i1 %.not21, label %23, label %11

11:                                               ; preds = %9
  %12 = load ptr, ptr %10, align 8, !tbaa !4
  %13 = getelementptr inbounds nuw i8, ptr %12, i64 16
  %14 = load ptr, ptr %13, align 8, !tbaa !7
  %.not22 = icmp eq ptr %14, null
  br i1 %.not22, label %18, label %15

15:                                               ; preds = %11
  %.not24 = icmp eq ptr %1, null
  br i1 %.not24, label %23, label %16

16:                                               ; preds = %15
  %17 = tail call i32 %14(ptr noundef nonnull %1, ptr noundef %2) #6
  br label %23

18:                                               ; preds = %11
  %19 = getelementptr inbounds nuw i8, ptr %12, i64 12
  %20 = load i32, ptr %19, align 4, !tbaa !12
  %21 = shl i32 %20, 22
  %22 = and i32 %21, 536870912
  %spec.select = or i32 %22, %20
  br label %23

23:                                               ; preds = %6, %18, %15, %16, %9, %3
  %.015 = phi i32 [ 0, %3 ], [ 0, %6 ], [ 0, %9 ], [ %spec.select, %18 ], [ %17, %16 ], [ 0, %15 ]
  ret i32 %.015
}